0000000000401a5f <start_farm>:
  401a5f:	b8 01 00 00 00       	mov    $0x1,%eax
  401a64:	c3                   	retq   

0000000000401a65 <getval_222>:
  401a65:	b8 48 89 c7 c3       	mov    $0xc3c78948,%eax
  401a6a:	c3                   	retq   

0000000000401a6b <setval_212>:
  401a6b:	c7 07 48 89 c7 c3    	movl   $0xc3c78948,(%rdi)
  401a71:	c3                   	retq   

0000000000401a72 <getval_214>:
  401a72:	b8 58 91 90 90       	mov    $0x90909158,%eax
  401a77:	c3                   	retq   

0000000000401a78 <setval_252>:
  401a78:	c7 07 48 89 c7 91    	movl   $0x91c78948,(%rdi)
  401a7e:	c3                   	retq   

0000000000401a7f <setval_495>:
  401a7f:	c7 07 40 89 c7 c3    	movl   $0xc3c78940,(%rdi)
  401a85:	c3                   	retq   

0000000000401a86 <getval_153>:
  401a86:	b8 d8 90 c3 24       	mov    $0x24c390d8,%eax
  401a8b:	c3                   	retq   

0000000000401a8c <addval_157>:
  401a8c:	8d 87 ed a5 58 90    	lea    -0x6fa75a13(%rdi),%eax
  401a92:	c3                   	retq   

0000000000401a93 <setval_451>:
  401a93:	c7 07 af 9d 58 c3    	movl   $0xc3589daf,(%rdi)
  401a99:	c3                   	retq   

0000000000401a9a <mid_farm>:
  401a9a:	b8 01 00 00 00       	mov    $0x1,%eax
  401a9f:	c3                   	retq   

0000000000401aa0 <add_xy>:
  401aa0:	48 8d 04 37          	lea    (%rdi,%rsi,1),%rax
  401aa4:	c3                   	retq   

0000000000401aa5 <setval_289>:
  401aa5:	c7 07 99 c1 90 90    	movl   $0x9090c199,(%rdi)
  401aab:	c3                   	retq   

0000000000401aac <setval_478>:
  401aac:	c7 07 89 ca c3 e3    	movl   $0xe3c3ca89,(%rdi)
  401ab2:	c3                   	retq   

0000000000401ab3 <addval_483>:
  401ab3:	8d 87 81 d6 38 d2    	lea    -0x2dc7297f(%rdi),%eax
  401ab9:	c3                   	retq   

0000000000401aba <addval_178>:
  401aba:	8d 87 89 c1 08 db    	lea    -0x24f73e77(%rdi),%eax
  401ac0:	c3                   	retq   

0000000000401ac1 <getval_101>:
  401ac1:	b8 ba 48 89 e0       	mov    $0xe08948ba,%eax
  401ac6:	c3                   	retq   

0000000000401ac7 <addval_216>:
  401ac7:	8d 87 89 d6 84 c0    	lea    -0x3f7b2977(%rdi),%eax
  401acd:	c3                   	retq   

0000000000401ace <addval_304>:
  401ace:	8d 87 a9 c1 08 db    	lea    -0x24f73e57(%rdi),%eax
  401ad4:	c3                   	retq   

0000000000401ad5 <addval_257>:
  401ad5:	8d 87 89 c1 60 db    	lea    -0x249f3e77(%rdi),%eax
  401adb:	c3                   	retq   

0000000000401adc <getval_326>:
  401adc:	b8 4d be 89 d6       	mov    $0xd689be4d,%eax
  401ae1:	c3                   	retq   

0000000000401ae2 <addval_259>:
  401ae2:	8d 87 88 ca 90 90    	lea    -0x6f6f3578(%rdi),%eax
  401ae8:	c3                   	retq   

0000000000401ae9 <setval_413>:
  401ae9:	c7 07 88 ca 84 c9    	movl   $0xc984ca88,(%rdi)
  401aef:	c3                   	retq   

0000000000401af0 <addval_255>:
  401af0:	8d 87 48 89 e0 91    	lea    -0x6e1f76b8(%rdi),%eax
  401af6:	c3                   	retq   

0000000000401af7 <addval_172>:
  401af7:	8d 87 81 c1 38 c9    	lea    -0x36c73e7f(%rdi),%eax
  401afd:	c3                   	retq   

0000000000401afe <getval_203>:
  401afe:	b8 8d c1 90 c3       	mov    $0xc390c18d,%eax
  401b03:	c3                   	retq   

0000000000401b04 <setval_448>:
  401b04:	c7 07 89 ca 92 90    	movl   $0x9092ca89,(%rdi)
  401b0a:	c3                   	retq   

0000000000401b0b <getval_376>:
  401b0b:	b8 e4 c8 89 e0       	mov    $0xe089c8e4,%eax
  401b10:	c3                   	retq   

0000000000401b11 <addval_309>:
  401b11:	8d 87 68 89 e0 c3    	lea    -0x3c1f7698(%rdi),%eax
  401b17:	c3                   	retq   

0000000000401b18 <getval_190>:
  401b18:	b8 89 d6 91 c3       	mov    $0xc391d689,%eax
  401b1d:	c3                   	retq   

0000000000401b1e <setval_455>:
  401b1e:	c7 07 89 d6 18 db    	movl   $0xdb18d689,(%rdi)
  401b24:	c3                   	retq   

0000000000401b25 <getval_486>:
  401b25:	b8 48 8b e0 90       	mov    $0x90e08b48,%eax
  401b2a:	c3                   	retq   

0000000000401b2b <addval_394>:
  401b2b:	8d 87 09 d6 90 c3    	lea    -0x3c6f29f7(%rdi),%eax
  401b31:	c3                   	retq   

0000000000401b32 <setval_273>:
  401b32:	c7 07 2b 48 89 e0    	movl   $0xe089482b,(%rdi)
  401b38:	c3                   	retq   

0000000000401b39 <setval_464>:
  401b39:	c7 07 89 c1 20 db    	movl   $0xdb20c189,(%rdi)
  401b3f:	c3                   	retq   

0000000000401b40 <addval_350>:
  401b40:	8d 87 89 ca 94 d2    	lea    -0x2d6b3577(%rdi),%eax
  401b46:	c3                   	retq   

0000000000401b47 <setval_351>:
  401b47:	c7 07 89 ca 38 c0    	movl   $0xc038ca89,(%rdi)
  401b4d:	c3                   	retq   

0000000000401b4e <addval_296>:
  401b4e:	8d 87 58 89 e0 90    	lea    -0x6f1f76a8(%rdi),%eax
  401b54:	c3                   	retq   

0000000000401b55 <getval_392>:
  401b55:	b8 b6 89 d6 91       	mov    $0x91d689b6,%eax
  401b5a:	c3                   	retq   

0000000000401b5b <getval_125>:
  401b5b:	b8 2d 4c 89 e0       	mov    $0xe0894c2d,%eax
  401b60:	c3                   	retq   

0000000000401b61 <getval_362>:
  401b61:	b8 c9 ca 20 d2       	mov    $0xd220cac9,%eax
  401b66:	c3                   	retq   

0000000000401b67 <getval_151>:
  401b67:	b8 8d ca 20 c9       	mov    $0xc920ca8d,%eax
  401b6c:	c3                   	retq   

0000000000401b6d <getval_410>:
  401b6d:	b8 89 d6 a4 c0       	mov    $0xc0a4d689,%eax
  401b72:	c3                   	retq   

0000000000401b73 <addval_417>:
  401b73:	8d 87 89 c1 78 d2    	lea    -0x2d873e77(%rdi),%eax
  401b79:	c3                   	retq   

0000000000401b7a <end_farm>:
  401b7a:	b8 01 00 00 00       	mov    $0x1,%eax
  401b7f:	c3                   	retq   

